(dp1
Vhttp://www.concordia.ca/artsci/geography-planning-environment/programs/undergraduate/environmental-science-bsc.html
p2
I75
sVhttp://www.concordia.ca/artsci/exercise-science/faculty.html?fpid=geoff-dover
p3
I183
sVhttp://www.concordia.ca/artsci/science-college/news/notices/cunews/artsci/science-college/2016/02/03/s-twareque-ali.html
p4
I58
sVhttp://www.concordia.ca/artsci/exercise-science/cunews/artsci/exercise-science/2016/10/28/arts-and-science-scholars-2016.html
p5
I21
sVhttp://www.concordia.ca/artsci/psychology/facilities-services.html
p6
I66
sVhttp://www.concordia.ca/artsci/physics/cunews/artsci/physics/2016/06/23/job-posting--tenure-track-appointment-in-opto-electronic-and-pho.html
p7
I41
sVhttp://www.concordia.ca/artsci/science-college/news/cunews/main/stories/2016/11/24/faculty-inventions-were-recognized-at-technology-and-innovation-event.html
p8
I554
sVhttp://www.concordia.ca/artsci/science-college/news/cunews/artsci/science-college/2015/09/22/coffee-hour-fall-2015.html
p9
I17
sVhttp://www.concordia.ca/artsci/geography-planning-environment/programs/current-students/program-requirements/environmental-geography.html
p10
I10
sVhttp://www.concordia.ca/artsci/exercise-science/news/cunews/encs/computer-science/2016/11/24/Seminar-by-Dr-Houari-A-Sahraoui.html
p11
I146
sVhttp://www.concordia.ca/artsci/chemistry/faculty.html?fpid=yves-gelinas
p12
I378
sVhttp://www.concordia.ca/artsci/math-stats/news.html
p13
I4
sVhttp://www.concordia.ca/artsci/psychology/about/staff.html
p14
I4
sVhttp://www.concordia.ca/artsci/physics/programs/graduate/physics-phd.html
p15
I72
sVhttp://www.concordia.ca/artsci/biology/about.html
p16
I114
sVhttp://www.concordia.ca/artsci/science-college/news/cunews/artsci/science-college/2016/02/03/s-twareque-ali.html
p17
I58
sVhttp://www.concordia.ca/artsci/physics/faculty.html?fpid=barry-frank
p18
I194
sVhttp://www.concordia.ca/artsci/science-college/program/writing-support.html
p19
I49
sVhttp://www.concordia.ca/artsci/psychology/news/colloquium-series-2014-2015.html
p20
I43
sVhttp://www.concordia.ca/artsci/biology/faculty.html?fpid=malcolm-whiteway
p21
I300
sVhttp://www.concordia.ca/artsci/biology/programs/graduate/diploma-biotechnology-genomics.html
p22
I92
sVhttp://www.concordia.ca/artsci/exercise-science/students/essa.html
p23
I52
sVhttp://www.concordia.ca/artsci/geography-planning-environment/programs/graduate/geography-urban-environmental-msc.html
p24
I172
sVhttp://www.concordia.ca/artsci/chemistry/faculty.html?fpid=brandon-findlay
p25
I8
sVhttp://www.concordia.ca/artsci/psychology/cunews/artsci/psychology/2016/07/26/override-dates-for-current-psychology-students.html
p26
I51
sVhttp://www.concordia.ca/artsci/physics/programs/undergraduate/co-op-program.html
p27
I104
sVhttp://www.concordia.ca/artsci/exercise-science/students/cunews/artsci/exercise-science/2016/11/22/our-students.html
p28
I10
sVhttp://www.concordia.ca/artsci/psychology/programs/undergraduate.html
p29
I50
sVhttp://www.concordia.ca/artsci/exercise-science/news/cunews/encs/info-systems-eng/seminars/2016/11/24/cost-effectiveness-agility-quality-management-practical-experiences-sharing.html
p30
I182
sVhttp://www.concordia.ca/artsci/geography-planning-environment/research/centres/trip-lab.html
p31
I67
sVhttp://www.concordia.ca/artsci/biology/about/faculty.html
p32
I30
sVhttp://www.concordia.ca/artsci/science-college/news/notices/cunews/artsci/science-college/2015/09/22/coffee-hour-fall-2015.html
p33
I17
sVhttp://www.concordia.ca/artsci/chemistry/news/notices.html
p34
I7
sVhttp://www.concordia.ca/artsci/exercise-science/students/cunews/artsci/exercise-science/2016/10/28/arts-and-science-scholars-2016.html
p35
I21
sVhttp://www.concordia.ca/artsci/math-stats/services/advising.html
p36
I557
sVhttp://www.concordia.ca/artsci/science-college/faculty.html?fpid=emma-despland
p37
I121
sVhttp://www.concordia.ca/artsci/exercise-science/news/cunews/main/stories/2015/12/10/our-students-success-is-made-possible-by-these-people.html
p38
I226
sVhttp://www.concordia.ca/artsci/psychology/faculty.html?fpid=june-chaikelson
p39
I74
sVhttp://www.concordia.ca/artsci/psychology/faculty.html?fpid=william-bukowski
p40
I197
sVhttp://www.concordia.ca/artsci/chemistry/faculty.html?fpid=peter-pawelek
p41
I22
sVhttp://www.concordia.ca/artsci/psychology/faculty.html?fpid=shimon-amir
p42
I3189
sVhttp://www.concordia.ca/artsci/physics/faculty.html?fpid=laszlo-kalman
p43
I343
sVhttp://www.concordia.ca/artsci/physics/faculty.html?fpid=truong-vovan
p44
I727
sVhttp://www.concordia.ca/artsci/exercise-science/programs/bsc-exercise-science.html
p45
I116
sVhttp://www.concordia.ca/artsci/exercise-science/faculty.html?fpid=simon-bacon
p46
I72
sVhttp://www.concordia.ca/artsci/geography-planning-environment/faculty.html?fpid=pascale-biron
p47
I478
sVhttp://www.concordia.ca/artsci/exercise-science/programs.html
p48
I80
sVhttp://www.concordia.ca/artsci/geography-planning-environment/about.html
p49
I32
sVhttp://www.concordia.ca/artsci/exercise-science/programs/msc-exercise-science.html
p50
I211
sVhttp://www.concordia.ca/artsci/science-college/faculty.html?fpid=veronique-pepin
p51
I126
sVhttp://www.concordia.ca/artsci/psychology/facilities-services/participant-pool.html
p52
I54
sVhttp://www.concordia.ca/artsci/science-college/faculty.html?fpid=guillaume-lamoureux
p53
I9
sVhttp://www.concordia.ca/artsci/math-stats/news/notices.html.html
p54
I4
sVhttp://www.concordia.ca/artsci/science-college/about/principal.html
p55
I48
sVhttp://www.concordia.ca/artsci/geography-planning-environment/faculty.html?fpid=monica-E-mulrennan
p56
I620
sVhttp://www.concordia.ca/artsci/physics/research/champagne-research-group.html
p57
I718
sVhttp://www.concordia.ca/artsci/exercise-science/faculty.html?fpid=peter-darlington
p58
I342
sVhttp://www.concordia.ca/artsci/chemistry/research.html
p59
I17
sVhttp://www.concordia.ca/artsci/exercise-science/about/faculty.html?fpid=veronique-pepin
p60
I6
sVhttp://www.concordia.ca/artsci/chemistry/news.html
p61
I9
sVhttp://www.concordia.ca/artsci/chemistry/programs/graduate/biotech-genomics-diploma.html
p62
I29
sVhttp://www.concordia.ca/artsci/science-college/faculty.html?fpid=laszlo-kalman
p63
I343
sVhttp://www.concordia.ca/artsci/math-stats/cunews/artsci/math-stats/2015/10/formula-of-unity---mathematical-olympiad.html
p64
I53
sVhttp://www.concordia.ca/artsci/geography-planning-environment/research/research-interests.html
p65
I12
sVhttp://www.concordia.ca/artsci/physics/faculty.html?fpid=pablo-bianucci
p66
I152
sVhttp://www.concordia.ca/artsci/exercise-science/students/cunews/main/stories/2016/11/28/book-stop-holiday-sale.html
p67
I110
sVhttp://www.concordia.ca/artsci/exercise-science/faculty.html?robert-panenic=
p68
I3
sVhttp://www.concordia.ca/artsci/physics/cunews/artsci/physics/2016/08/02/physics-department-newsletter---july-2016.html
p69
I8
sVhttp://www.concordia.ca/artsci/exercise-science/news/cunews/offices/vpaer/aar/2015/05/13/remembering-a-man-born-to-run.html
p70
I298
sVhttp://www.concordia.ca/artsci/chemistry/profiles/judith-kornblatt.html
p71
I95
sVhttp://www.concordia.ca/artsci/chemistry/news/notices/cunews/artsci/chemistry/2015/09/10/lab-exemption-policy.html
p72
I33
sVhttp://www.concordia.ca/artsci/physics/programs/undergraduate/tutorials.html
p73
I5
sVhttp://www.concordia.ca/artsci/geography-planning-environment/faculty.html?fpid=alan-nash
p74
I563
sVhttp://www.concordia.ca/artsci/exercise-science/news/cunews/encs/2016/11/18/kon-leong-talk-on-data-in-the-digital-age.html
p75
I115
sVhttp://www.concordia.ca/artsci/chemistry/programs.html
p76
I9
sVhttp://www.concordia.ca/artsci/chemistry/about/jobs.html
p77
I17
sVhttp://www.concordia.ca/artsci/physics/student-life.html
p78
I33
sVhttp://www.concordia.ca/artsci/physics/about/physique-concordia.html
p79
I335
sVhttp://www.concordia.ca/artsci/exercise-science/cuevents/artsci/2016/04/07/decreasing-injury-by-reducing-head-impacts-in-football.html
p80
I93
sVhttp://www.concordia.ca/artsci/biology/programs/graduate.html
p81
I60
sVhttp://www.concordia.ca/artsci/chemistry/student-life.html
p82
I13
sVhttp://www.concordia.ca/artsci/chemistry/faculty.html?fpid=dajana-vuckovic
p83
I19
sVhttp://www.concordia.ca/artsci/physics/programs/graduate/current-students.html
p84
I3
sVhttp://www.concordia.ca/artsci/biology/faculty.html?fpid=vladimir-titorenko
p85
I988
sVhttp://www.concordia.ca/artsci/psychology/programs/graduate.html
p86
I44
sVhttp://www.concordia.ca/artsci/science-college/faculty.html?fpid=dajana-vuckovic
p87
I19
sVhttp://www.concordia.ca/artsci/biology/cuevents/artsci/2016/12/01/beyond-disciplines--building-bridges-going-beyond-the-walls.html
p88
I122
sVhttp://www.concordia.ca/artsci/psychology/faculty.html?fpid=theresa-bianco
p89
I2
sVhttp://www.concordia.ca/artsci/psychology/research/human-development-developmental-processes.html
p90
I64
sVhttp://www.concordia.ca/artsci/biology/events/cuevents/main/2016/09/21/meditative-colouring.html
p91
I45
sVhttp://www.concordia.ca/artsci/science-college/news/public-lecture-series/past-lectures/donald-pfaff-rockefeller-university.html
p92
I91
sVhttp://www.concordia.ca/artsci/science-college/faculty.html?fpid=judith-patterson
p93
I973
sVhttp://www.concordia.ca/artsci/chemistry/programs/graduate/phd-chemistry.html
p94
I374
sVhttp://www.concordia.ca/artsci/physics/research/publications.html
p95
I7
sVhttp://www.concordia.ca/artsci/science-college/news/archive.html
p96
I8
sVhttp://www.concordia.ca/artsci/physics/programs.html
p97
I16
sVhttp://www.concordia.ca/artsci/biology/faculty.html?fpid=jin-suk-lee
p98
I393
sVhttp://www.concordia.ca/artsci/chemistry/faculty.html?fpid=christine-dewolf
p99
I115
sVhttp://www.concordia.ca/artsci/science-college/news/cunews/main/stories/2016/11/21/poet-kelly-norah-drukker-nominated-for-two-major-prizes-qwf.html
p100
I222
sVhttp://www.concordia.ca/artsci/exercise-science/faculty.html?fpid=robert-panenic
p101
I113
sVhttp://www.concordia.ca/artsci/physics/cunews/artsci/physics/2016/10/13/the-2016-reunion-of-the-department-of-physics-at-concordia-was-a.html
p102
I139
sVhttp://www.concordia.ca/artsci/psychology/research/research-labs.html
p103
I4
sVhttp://www.concordia.ca/artsci/physics/about.html
p104
I136
sVhttp://www.concordia.ca/artsci/chemistry/research/research-centres/nuclear-magnetic-resonance.html
p105
I162
sVhttp://www.concordia.ca/artsci/geography-planning-environment/student-life.html
p106
I36
sVhttp://www.concordia.ca/artsci/biology/programs/undergraduate/bsc-biology.html
p107
I117
sVhttp://www.concordia.ca/artsci/math-stats/services.html
p108
I25
sVhttp://www.concordia.ca/artsci/chemistry/profiles/oswald-tee.html
p109
I624
sVhttp://www.concordia.ca/artsci/biology/cunews/artsci/biology/2016/11/8/biology-student-shares-exchange-experience0.html
p110
I32
sVhttp://www.concordia.ca/artsci/psychology/faculty.html?fpid=andrew-chapman
p111
I1210
sVhttp://www.concordia.ca/artsci/psychology/programs/graduate/research-clinical-training/faculty-supervisors.html
p112
I1951
sVhttp://www.concordia.ca/artsci/psychology/research.html
p113
I6
sVhttp://www.concordia.ca/artsci/biology/faculty.html?fpid=reginald-storms
p114
I281
sVhttp://www.concordia.ca/artsci/science-college/faculty.html?fpid=natalie-phillips
p115
I190
sVhttp://www.concordia.ca/artsci/psychology/facilities-services/apc.html
p116
I49
sVhttp://www.concordia.ca/artsci/math-stats/programs/undergraduate.html
p117
I31
sVhttp://www.concordia.ca/artsci/geography-planning-environment/research/centres.html
p118
I23
sVhttp://www.concordia.ca/artsci/physics/faculty.html?fpid=calvin-kalman
p119
I13
sVhttp://www.concordia.ca/artsci/science-college/faculty.html?fpid=alisa-piekny
p120
I181
sVhttp://www.concordia.ca/artsci/math-stats/about/faculty.html
p121
I3
sVhttp://www.concordia.ca/artsci/geography-planning-environment/cunews/main/stories/2016/10/17/mtltrajet-an-app-with-street-smarts-travel-survey-zak-patterson.html
p122
I278
sVhttp://www.concordia.ca/artsci/science-college/about.html
p123
I13
sVhttp://www.concordia.ca/artsci/psychology/faculty.html?fpid=andreas-arvanitogiannis
p124
I803
sVhttp://www.concordia.ca/artsci/physics/faculty.html?fpid=alexandre-champagne
p125
I188
sVhttp://www.concordia.ca/artsci/exercise-science/news/notices.html
p126
I5
sVhttp://www.concordia.ca/artsci/geography-planning-environment/programs/current-students/pre-registration-guides/returning-students.html
p127
I90
sVhttp://www.concordia.ca/artsci/geography-planning-environment/faculty.html?fpid=zachary-patterson
p128
I1710
sVhttp://www.concordia.ca/artsci/geography-planning-environment/about/why-study-with-us.html
p129
I24
sVhttp://www.concordia.ca/artsci/psychology/news.html.html
p130
I4
sVhttp://www.concordia.ca/artsci/geography-planning-environment/cuevents/artsci/2016/12/01/beyond-disciplines--building-bridges-going-beyond-the-walls.html
p131
I122
sVhttp://www.concordia.ca/artsci/exercise-science/faculty.html?fpid=alain-leroux
p132
I59
sVhttp://www.concordia.ca/artsci/biology/events/cuevents/offices/provost/ssc/2016/11/29/MinistereDeLaDefenceEvent.html
p133
I173
sVhttp://www.concordia.ca/artsci/geography-planning-environment/faculty.html?fpid=judith-patterson
p134
I973
sVhttp://www.concordia.ca/artsci/chemistry/programs/undergraduate/bsc-biochemistry/coop.html
p135
I49
sVhttp://www.concordia.ca/artsci/biology/faculty.html?fpid=ian-ferguson
p136
I46
sVhttp://www.concordia.ca/artsci/math-stats/about/math-outreach.html
p137
I29
sVhttp://www.concordia.ca/artsci/psychology/research/behavioural-neuroscience.html
p138
I55
sVhttp://www.concordia.ca/artsci/physics/research.html
p139
I46
sVhttp://www.concordia.ca/artsci/biology/programs/undergraduate.html
p140
I35
sVhttp://www.concordia.ca/artsci/math-stats/cunews/artsci/math-stats/2016/06/28/jose-garrido-cia-merit.html
p141
I34
sVhttp://www.concordia.ca/artsci/exercise-science/faculty.html?fpid=richard-courtemanche
p142
I552
sVhttp://www.concordia.ca/artsci/psychology/faculty.html?fpid=Louis-bherer
p143
I151
sVhttp://www.concordia.ca/artsci/geography-planning-environment/programs/undergraduate/environmental-geography.html
p144
I231
sVhttp://www.concordia.ca/artsci/chemistry/cbgrc.html
p145
I27
sVhttp://www.concordia.ca/artsci/exercise-science/about/faculty.html?fpid=geoff-dover
p146
I6
sVhttp://www.concordia.ca/artsci/physics/research/calvin-s--kalman-research-group.html
p147
I343
sVhttp://www.concordia.ca/artsci/biology/faculty.html?fpid=vincent-martin
p148
I736
sVhttp://www.concordia.ca/artsci/biology/cunews/artsci/2016/11/28/fas-salutes-high-gpa-grad-students.html
p149
I202
sVhttp://www.concordia.ca/artsci/biology.html
p150
I87
sVhttp://www.concordia.ca/artsci/chemistry/faculty.html?fpid=peter-bird
p151
I159
sVhttp://www.concordia.ca/artsci/science-college/faculty.html?fpid=claudine-gauthier
p152
I125
sVhttp://www.concordia.ca/artsci/psychology/programs/undergraduate/options.html
p153
I166
sVhttp://www.concordia.ca/artsci/math-stats.html
p154
I28
sVhttp://www.concordia.ca/artsci/physics/faculty.html?fpid=mario-damico
p155
I5
sVhttp://www.concordia.ca/artsci/physics/faculty.html?fpid=claudine-gauthier
p156
I125
sVhttp://www.concordia.ca/artsci/psychology/cuevents/artsci/2016/12/01/beyond-disciplines--building-bridges-going-beyond-the-walls.html
p157
I122
sVhttp://www.concordia.ca/artsci/science-college/news/public-lecture-series/past-lectures.html
p158
I9
sVhttp://www.concordia.ca/artsci/physics/news.html
p159
I4
sVhttp://www.concordia.ca/artsci/biology/about/jobs.html
p160
I25
sVhttp://www.concordia.ca/artsci/physics/cuevents/offices/provost/library/2016/10/04/understanding-and-increasing-the-visibility-and-impact-of-your-research.html
p161
I33
sVhttp://www.concordia.ca/artsci/science-college/news/cunews/artsci/science-college/2015/06/20/achievements-for-science-college-students.html
p162
I41
sVhttp://www.concordia.ca/artsci/science-college/about/faculty.html
p163
I8
sVhttp://www.concordia.ca/artsci/biology/students/advising-support.html
p164
I2406
sVhttp://www.concordia.ca/artsci/geography-planning-environment/research.html
p165
I56
sVhttp://www.concordia.ca/artsci/math-stats/cunews/main/stories/2016/10/06/arts-science-scholars-151-leaders-of-tomorrow.html
p166
I301
sVhttp://www.concordia.ca/artsci/science-college/program.html
p167
I44
sVhttp://www.concordia.ca/artsci/chemistry/programs/undergraduate/procedures-forms.html
p168
I146
sVhttp://www.concordia.ca/artsci/psychology/students.html
p169
I33
sVhttp://www.concordia.ca/artsci/exercise-science/research/publications.html
p170
I4
sVhttp://www.concordia.ca/artsci/math-stats/research.html
p171
I21
sVhttp://www.concordia.ca/artsci/psychology/faculty.html?fpid=jeanphilippe-gouin
p172
I215
sVhttp://www.concordia.ca/artsci/chemistry/cunews/main/stories/2016/11/09/the-double-wonder-of-worms-research-vermicompost.html
p173
I385
sVhttp://www.concordia.ca/artsci/psychology/contact.html
p174
I5
sVhttp://www.concordia.ca/artsci/geography-planning-environment/faculty.html?fpid=sebastien-caquard
p175
I969
sVhttp://www.concordia.ca/artsci/psychology/students/graduate/graduate-fellowships.html
p176
I173
sVhttp://www.concordia.ca/artsci/science-college/news/public-lecture-series/past-lectures/climate-change-mitigation-and-tropical-forests.html
p177
I55
sVhttp://www.concordia.ca/artsci/biology/research/seminar.html
p178
I28
sVhttp://www.concordia.ca/artsci/math-stats/cuevents/artsci/math-stats/2016/12/02/mathematics---statistics-research-seminar.html
p179
I52
sVhttp://www.concordia.ca/artsci/science-college/news/cunews/offices/vpaer/aar/2016/11/23/finding-the-celtic-soul-with-jay-baruchel.html
p180
I397
sVhttp://www.concordia.ca/artsci/science-college/news/notices.html.html
p181
I8
sVhttp://www.concordia.ca/artsci/math-stats/services/online-homework-systems.html
p182
I153
sVhttp://www.concordia.ca/artsci/chemistry/cuevents/artsci/chemistry/2016/12/09/eisler-16.html
p183
I19
sVhttp://www.concordia.ca/artsci/geography-planning-environment/research/facilities.html
p184
I50
sVhttp://www.concordia.ca/artsci/science-college/news/public-lecture-series/past-lectures/science-and-religion.html
p185
I124
sVhttp://www.concordia.ca/artsci/geography-planning-environment/programs/current-students/program-requirements/honours-students.html
p186
I301
sVhttp://www.concordia.ca/artsci/exercise-science/news/cunews/encs/info-systems-eng/seminars/2016/11/28/sustainable-smart-connected-societies-real-world-testbeds.html
p187
I223
sVhttp://www.concordia.ca/artsci/chemistry/news/notices.html.html
p188
I7
sVhttp://www.concordia.ca/artsci/biology/faculty.html?fpid=william-zerges
p189
I191
sVhttp://www.concordia.ca/artsci/geography-planning-environment/faculty.html?fpid=brian-slack
p190
I700
sVhttp://www.concordia.ca/artsci/science-college/news/public-lecture-series.html
p191
I108
sVhttp://www.concordia.ca/artsci/exercise-science/news/cunews/encs/computer-science/2016/11/28/Seminar-by-Dr-Aiko-Yamashita.html
p192
I86
sVhttp://www.concordia.ca/artsci/geography-planning-environment/about/faculty.html
p193
I21
sVhttp://www.concordia.ca/artsci/science-college/faculty.html?fpid=nadia-chaudhri
p194
I941
sVhttp://www.concordia.ca/artsci/geography-planning-environment/programs/current-students/program-requirements/graduate-programrequirements.html
p195
I235
sVhttp://www.concordia.ca/artsci/chemistry/programs/science-college.html
p196
I29
sVhttp://www.concordia.ca/artsci/biology/faculty.html?fpid=patrick-gulick
p197
I638
sVhttp://www.concordia.ca/artsci/exercise-science/about.html
p198
I119
sVhttp://www.concordia.ca/artsci/science-college.html
p199
I14
sVhttp://www.concordia.ca/artsci/biology/programs/undergraduate/bsc-ecology.html
p200
I96
sVhttp://www.concordia.ca/artsci/biology/faculty.html?fpid=emma-despland
p201
I121
sVhttp://www.concordia.ca/artsci/geography-planning-environment/faculty.html?fpid=damon-matthews
p202
I1062
sVhttp://www.concordia.ca/artsci/chemistry/programs/graduate/msc-chemistry.html
p203
I371
sVhttp://www.concordia.ca/artsci/geography-planning-environment/faculty.html?fpid=jacqueline-m-anderson
p204
I628
sVhttp://www.concordia.ca/artsci/biology/research.html
p205
I29
sVhttp://www.concordia.ca/artsci/geography-planning-environment/faculty.html?fpid=rosemary-collard
p206
I412
sVhttp://www.concordia.ca/artsci/exercise-science/programs/bsc-exercise-science-athletic-therapy.html
p207
I83
sVhttp://www.concordia.ca/artsci/science-college/news/notices/cunews/artsci/science-college/2015/06/20/achievements-for-science-college-students.html
p208
I41
sVhttp://www.concordia.ca/artsci/psychology/faculty.html?fpid=virginia-penhune
p209
I298
sVhttp://www.concordia.ca/artsci/physics/programs/undergraduate.html
p210
I148
sVhttp://www.concordia.ca/artsci/chemistry/cunews/main/stories/2016/11/24/faculty-inventions-were-recognized-at-technology-and-innovation-event.html
p211
I554
sVhttp://www.concordia.ca/artsci/chemistry/programs/exchange.html
p212
I201
sVhttp://www.concordia.ca/artsci/exercise-science/research.html
p213
I17
sVhttp://www.concordia.ca/content/concordia/en/artsci/biology/faculty.htlml?fpid=patrick-gulick
p214
I13
sVhttp://www.concordia.ca/artsci/science-college/faculty.html?fpid=andreas-bergdahl
p215
I116
sVhttp://www.concordia.ca/artsci/biology/students.html
p216
I35
sVhttp://www.concordia.ca/artsci/geography-planning-environment/programs/current-students/program-requirements/urban-planning-studies.html
p217
I5
sVhttp://www.concordia.ca/artsci/geography-planning-environment/cunews/main/stories/2016/11/21/opinion-how-does-canadas-climate-policy-rate-damon-matthews.html
p218
I556
sVhttp://www.concordia.ca/artsci/biology/students/cunews/main/stories/2016/11/29/health-benefits-rate-for-cupfa-and-cuceptfu-2016-2017.html
p219
I130
sVhttp://www.concordia.ca/artsci/exercise-science/faculty.html?fpid=andreas-bergdahl
p220
I116
sVhttp://www.concordia.ca/artsci/psychology/faculty.html?fpid=erin-barker
p221
I152
sVhttp://www.concordia.ca/artsci/biology/contact.html
p222
I7
sVhttp://www.concordia.ca/artsci/exercise-science/faculty.html?fpid=david-paris
p223
I80
sVhttp://www.concordia.ca/artsci/biology/cunews/main/stories/2016/11/22/the-significance-of-salamanders-biology-professor-grant-brown.html
p224
I232
sVhttp://www.concordia.ca/artsci/geography-planning-environment/faculty.html?fpid=silvano-delallata
p225
I598
sVhttp://www.concordia.ca/artsci/exercise-science/about/faculty.html?fpid=sylvia-santosa
p226
I6
sVhttp://www.concordia.ca/artsci/exercise-science/research/projects.html
p227
I529
sVhttp://www.concordia.ca/artsci/science-college/student-life/coffee-hour.html
p228
I123
sVhttp://www.concordia.ca/artsci/exercise-science/research/perform-centre.html
p229
I39
sVhttp://www.concordia.ca/artsci/exercise-science/faculty.html?fpid=thanh-dang-vu
p230
I1746
sVhttp://www.concordia.ca/artsci/biology/faculty.html?fpid=catherine-bachewich
p231
I403
sVhttp://www.concordia.ca/artsci/geography-planning-environment/programs/current-students.html
p232
I20
sVhttp://www.concordia.ca/artsci/math-stats/programs/graduate/mathematics-statistics-mamsc/course-offerings.html
p233
I20
sVhttp://www.concordia.ca/artsci/psychology/programs/graduate/research-clinical-training.html
p234
I337
sVhttp://www.concordia.ca/artsci/chemistry/faculty.html?fpid=christopher-wilds
p235
I9
sVhttp://www.concordia.ca/artsci/geography-planning-environment/student-life/projects.html
p236
I18
sVhttp://www.concordia.ca/artsci/psychology/cunews/artsci/psychology/2015/09/21/announcement-death-dolores-pushkar.html
p237
I69
sVhttp://www.concordia.ca/artsci/geography-planning-environment/programs.html
p238
I46
sVhttp://www.concordia.ca/artsci/geography-planning-environment/programs/current-students/pre-registration-guides/transfer-students.html
p239
I63
sVhttp://www.concordia.ca/artsci/physics/faculty.html?fpid=ramesh-sharma
p240
I7
sVhttp://www.concordia.ca/artsci/science-college/faculty.html?fpid=alina-stancu
p241
I7
sVhttp://www.concordia.ca/artsci/science-college/faculty.html?fpid=richard-demont
p242
I123
sVhttp://www.concordia.ca/artsci/psychology/faculty.html?fpid=mark-ellenbogen
p243
I136
sVhttp://www.concordia.ca/artsci/physics/faculty.html?fpid=mariana-frank
p244
I188
sVhttp://www.concordia.ca/artsci/science-college/faculty.html?fpid=robert-kilgour
p245
I234
sVhttp://www.concordia.ca/artsci/psychology/events.html
p246
I79
sVhttp://www.concordia.ca/artsci/chemistry/programs/graduate.html
p247
I6
sVhttp://www.concordia.ca/artsci/exercise-science/news.html
p248
I5
sVhttp://www.concordia.ca/artsci/science-college/faculty.html?fpid=simon-bacon
p249
I72
sVhttp://www.concordia.ca/artsci/geography-planning-environment/about/jobs.html
p250
I5
sVhttp://www.concordia.ca/artsci/science-college/faculty.html?fpid=dmitry-korotkin
p251
I7
sVhttp://www.concordia.ca/artsci/chemistry/news/events.html
p252
I8
sVhttp://www.concordia.ca/artsci/math-stats/programs/course-outlines.html
p253
I20
sVhttp://www.concordia.ca/artsci/biology/research/areas.html
p254
I60
sVhttp://www.concordia.ca/artsci/biology/events/cuevents/main/2016/10/11/family-works-at-the-montreal-museum-of-fine-arts.html
p255
I73
sVhttp://www.concordia.ca/artsci/psychology/programs/graduate/research.html
p256
I221
sVhttp://www.concordia.ca/artsci/chemistry/research/research-resources.html
p257
I28
sVhttp://www.concordia.ca/artsci/psychology/faculty.html?fpid=lucie-bonneville
p258
I25
sVhttp://www.concordia.ca/artsci/psychology/faculty.html?fpid=constantina-giannopoulos
p259
I104
sVhttp://www.concordia.ca/artsci/science-college/news/notices/cunews/artsci/science-college/2016/10/coffee-hour-fall-2016.html
p260
I17
sVhttp://www.concordia.ca/artsci/psychology/faculty.html?fpid=krista-byers-heinlein
p261
I126
sVhttp://www.concordia.ca/artsci/exercise-science/cunews/main/stories/2016/02/03/athletic-therapy-alum-jean-baptiste-laporte-carolina-panthers-super-bowl.html
p262
I435
sVhttp://www.concordia.ca/content/shared/en/news/artsci/math-stats/2016/01/28/in-memory-of-syed-twareque-ali.html
p263
I713
sVhttp://www.concordia.ca/artsci/exercise-science/about/faculty.html?fpid=nancy-st-onge
p264
I6
sVhttp://www.concordia.ca/artsci/chemistry/faculty.html?fpid=louis-cuccia
p265
I47
sVhttp://www.concordia.ca/artsci/geography-planning-environment/faculty.html?fpid=kevin-gould
p266
I217
sVhttp://www.concordia.ca/artsci/geography-planning-environment/faculty.html?fpid=craig-townsend
p267
I217
sVhttp://www.concordia.ca/artsci/science-college/news/cunews/artsci/2016/11/28/fas-salutes-high-gpa-grad-students.html
p268
I202
sVhttp://www.concordia.ca/artsci/physics/student-life/career-options.html
p269
I36
sVhttp://www.concordia.ca/artsci/math-stats/services/math-help-centre.html
p270
I29
sVhttp://www.concordia.ca/artsci/physics/programs/undergraduate/teaching-laboratories.html
p271
I66
sVhttp://www.concordia.ca/artsci/chemistry/faculty.html?fpid=joanne-turnbull
p272
I5
sVhttp://www.concordia.ca/artsci/exercise-science/news/cunews/main/stories/2016/02/03/athletic-therapy-alum-jean-baptiste-laporte-carolina-panthers-super-bowl.html
p273
I435
sVhttp://www.concordia.ca/artsci/physics/programs/graduate/physics-msc.html
p274
I554
sVhttp://www.concordia.ca/artsci/chemistry/faculty.html?fpid=ann-english
p275
I18
sVhttp://www.concordia.ca/artsci/geography-planning-environment/programs/undergraduate/geography.html
p276
I187
sVhttp://www.concordia.ca/artsci/math-stats/cuevents/artsci/math-stats/2016/12/11/math-circle.html
p277
I130
sVhttp://www.concordia.ca/artsci/chemistry/faculty.html?fpid=cameron-skinner
p278
I6
sVhttp://www.concordia.ca/artsci/geography-planning-environment/programs/graduate/environmental-assessment-menv.html
p279
I262
sVhttp://www.concordia.ca/artsci/exercise-science/news/cunews/main/stories/2015/10/07/just-30-minutes-a-day-regular-exercise-relieves-asthma-symptoms-bacon-simon.html
p280
I297
sVhttp://www.concordia.ca/artsci/psychology/cuevents/artsci/math-stats/2016/12/04/math-circle.html
p281
I130
sVhttp://www.concordia.ca/artsci/geography-planning-environment/programs/undergraduate/urban-studies-planning-ba.html
p282
I83
sVhttp://www.concordia.ca/artsci/biology/events/cuevents/offices/provost/ssc/2016/11/29/MTLSmartCamp.html
p283
I79
sVhttp://www.concordia.ca/artsci/geography-planning-environment/programs/current-students/program-requirements/environmental-science.html
p284
I10
sVhttp://www.concordia.ca/artsci/chemistry/programs/undergraduate/advanced-courses.html
p285
I529
sVhttp://www.concordia.ca/artsci/geography-planning-environment/programs/current-students/pre-registration-guides/new-students.html
p286
I719
sVhttp://www.concordia.ca/artsci/exercise-science/students/cunews/artsci/exercise-science/2015/10/23/2014-2015-arts-and-science-scholars.html
p287
I18
sVhttp://www.concordia.ca/artsci/biology/students/cunews/artsci/biology/2016/4/26/beyond-the-books-event-explores-post-university-careers.html
p288
I45
sVhttp://www.concordia.ca/artsci/biology/programs/graduate/msc-biology.html
p289
I87
sVhttp://www.concordia.ca/artsci/biology/faculty.html?fpid=madoka-gray-mitsumune
p290
I276
sVhttp://www.concordia.ca/artsci/psychology/about/faculty.html
p291
I6
sVhttp://www.concordia.ca/artsci/science-college/faculty.html?fpid=lisa-kakinami
p292
I12
sVhttp://www.concordia.ca/artsci/science-college/faculty.html?fpid=pablo-bianucci
p293
I152
sVhttp://www.concordia.ca/artsci/exercise-science/cunews/main/stories/2016/03/18/world-sleep-day-cognition-child-development-jennifer-mcgrath-thien-thanh-dang-vu.html
p294
I361
sVhttp://www.concordia.ca/artsci/chemistry/programs/undergraduate.html
p295
I100
sVhttp://www.concordia.ca/artsci/exercise-science/faculty.html?fpid=richard-demont
p296
I123
sVhttp://www.concordia.ca/artsci/geography-planning-environment/cunews/main/stories/2016/09/13/newest-royal-society-of-canada-member-damon-matthews.html
p297
I165
sVhttp://www.concordia.ca/artsci/math-stats/cunews/artsci/math-stats/2016/03/17/iovita-awarded.html
p298
I57
sVhttp://www.concordia.ca/artsci/psychology/programs/graduate/faq.html
p299
I331
sVhttp://www.concordia.ca/artsci/exercise-science.html
p300
I3
sVhttp://www.concordia.ca/artsci/geography-planning-environment/faculty.html?fpid=James-freeman
p301
I133
sVhttp://www.concordia.ca/artsci/science-college/faculty.html?fpid=paul-joyce
p302
I214
sVhttp://www.concordia.ca/artsci/science-college/news/notices/cunews/artsci/science-college/2014/09/23/science-college-35th-anniversary.html
p303
I40
sVhttp://www.concordia.ca/artsci/biology/events/cuevents/main/2016/09/12/2016-08-08_community-drum-circle.html
p304
I35
sVhttp://www.concordia.ca/artsci/exercise-science/faculty.html?fpid=sylvia-santosa
p305
I112
sVhttp://www.concordia.ca/artsci/biology/events/cuevents/offices/provost/ssc/2016/11/29/networking-and-social-media.html
p306
I28
sVhttp://www.concordia.ca/artsci/science-college/about/life-at-the-college.html
p307
I103
sVhttp://www.concordia.ca/artsci/psychology/faculty.html?fpid=aaron-johnson
p308
I247
sVhttp://www.concordia.ca/artsci/psychology/news.html
p309
I4
sVhttp://www.concordia.ca/artsci/chemistry/faculty.html?fpid=gkos
p310
I713
sVhttp://www.concordia.ca/artsci/chemistry/news/events/grad-seminars.html
p311
I8
sVhttp://www.concordia.ca/artsci/biology/cuevents/main/2016/11/30/book-launch-the-global-impact-of-religious-violence.html
p312
I200
sVhttp://www.concordia.ca/artsci/chemistry/faculty.html?fpid=xavier-ottenwaelder
p313
I31
sVhttp://www.concordia.ca/artsci/psychology/about.html
p314
I9
sVhttp://www.concordia.ca/artsci/biology/faculty.html?fpid=james-grant
p315
I172
sVhttp://www.concordia.ca/artsci/math-stats/about.html
p316
I16
sVhttp://www.concordia.ca/artsci/science-college/program/admissions.html
p317
I143
sVhttp://www.concordia.ca/artsci/geography-planning-environment/programs/current-students/program-requirements.html
p318
I4
sVhttp://www.concordia.ca/artsci/chemistry/faculty.html?fpid=cerrie-rogers
p319
I5
sVhttp://www.concordia.ca/artsci/psychology/programs/graduate/psychology-phd.html
p320
I202
sVhttp://www.concordia.ca/artsci/biology/students/cunews/artsci/biology/2015/11/18/chris-plenzich-wins-the-bayer-s-award-for-best-oral-presentation.html
p321
I62
sVhttp://www.concordia.ca/artsci/science-college/cunews/artsci/science-college/2016/02/02/coffee-hour-winter-2016.html
p322
I17
sVhttp://www.concordia.ca/artsci/geography-planning-environment/faculty.html?fpid=norma-rantisi
p323
I283
sVhttp://www.concordia.ca/artsci/chemistry/news/notices/cunews/artsci/chemistry/2014/01/01/fellowships.html
p324
I8
sVhttp://www.concordia.ca/artsci/biology/cunews/main/stories/2016/11/09/the-double-wonder-of-worms-research-vermicompost.html
p325
I385
sVhttp://www.concordia.ca/artsci/chemistry/programs/undergraduate/bsc-biochemistry.html
p326
I232
sVhttp://www.concordia.ca/artsci/science-college/about/life-at-the-college/principles.html
p327
I97
sVhttp://www.concordia.ca/artsci/geography-planning-environment/cunews/main/stories/2016/10/24/quartier-concordia-public-spaces-and-gathering-places-vitrines-8.html
p328
I302
sVhttp://www.concordia.ca/artsci/psychology/research/researchers.html
p329
I17
sVhttp://www.concordia.ca/artsci/biology/faculty.html?fpid=salvadurai-dayanandan
p330
I5
sVhttp://www.concordia.ca/artsci/physics/research/bianucci-research-group.html
p331
I341
sVhttp://www.concordia.ca/artsci/geography-planning-environment/faculty.html?fpid=pierre-gauthier
p332
I1656
sVhttp://www.concordia.ca/artsci/chemistry/research/publications.html
p333
I6
sVhttp://www.concordia.ca/artsci/geography-planning-environment/research/publications.html
p334
I8
sVhttp://www.concordia.ca/artsci/physics.html
p335
I14
sVhttp://www.concordia.ca/artsci/physics/faculty.html?fpid=joseph-shin
p336
I7
sVhttp://www.concordia.ca/artsci/exercise-science/faculty.html?fpid=veronique-pepin
p337
I126
sVhttp://www.concordia.ca/artsci/science-college/news/cunews/main/stories/2016/11/23/168-courses-rooted-in-community-based-experiential-learning.html
p338
I289
sVhttp://www.concordia.ca/artsci/exercise-science/about/faculty.html?fpid=robert-kilgour
p339
I6
sVhttp://www.concordia.ca/artsci/science-college/faculty.html?fpid=james-pfaus
p340
I3322
sVhttp://www.concordia.ca/artsci/biology/events/cuevents/finearts/fofa/2016/10/exhibition-dna.html
p341
I637
sVhttp://www.concordia.ca/artsci/geography-planning-environment/programs/undergraduate/environmental-geography-bsc.html
p342
I70
sVhttp://www.concordia.ca/artsci/science-college/news/cunews/artsci/science-college/2016/02/02/coffee-hour-winter-2016.html
p343
I17
sVhttp://www.concordia.ca/artsci/science-college/research.html
p344
I96
sVhttp://www.concordia.ca/artsci/science-college/news/notices/cunews/artsci/science-college/2014/06/10/achievements-for-science-college-students.html
p345
I27
sVhttp://www.concordia.ca/artsci/exercise-science/students.html
p346
I58
sVhttp://www.concordia.ca/artsci/math-stats/cunews/main/stories/2016/11/24/faculty-inventions-were-recognized-at-technology-and-innovation-event.html
p347
I554
sVhttp://www.concordia.ca/artsci/physics/faculty.html?fpid=guillaume-lamoureux
p348
I9
sVhttp://www.concordia.ca/artsci/biology/faculty.html?fpid=david-walsh
p349
I360
sVhttp://www.concordia.ca/artsci/biology/faculty.html?fpid=michael-sacher
p350
I352
sVhttp://www.concordia.ca/artsci/geography-planning-environment/programs/graduate/geography-urban-environmental-phd.html
p351
I122
sVhttp://www.concordia.ca/artsci/geography-planning-environment/programs/graduate/environmental-assessment-dea.html
p352
I82
sVhttp://www.concordia.ca/artsci/geography-planning-environment/about/staff.html
p353
I15
sVhttp://www.concordia.ca/artsci/chemistry/news/events/archive.html
p354
I18
sVhttp://www.concordia.ca/artsci/math-stats/programs/graduate.html
p355
I59
sVhttp://www.concordia.ca/artsci/geography-planning-environment/programs/undergraduate/urban-studies-planning.html
p356
I170
sVhttp://www.concordia.ca/artsci/psychology/cunews/main/stories/2016/11/04/how-daylight-saving-time-affects-our-circadian-rhythms.html
p357
I159
sVhttp://www.concordia.ca/artsci/physics/cuevents/artsci/2016/10/20/beyond-disciplines-come-to-your-senses---sensescapes-in-researc.html
p358
I122
sVhttp://www.concordia.ca/artsci/biology/events/cuevents/finearts/fofa/2016/11/concordia-remembers-crisis.html
p359
I428
sVhttp://www.concordia.ca/artsci/physics/faculty.html?fpid=georges-abinader
p360
I5
sVhttp://www.concordia.ca/artsci/biology/faculty.html?fpid=david-kwan
p361
I406
sVhttp://www.concordia.ca/artsci/biology/cunews/artsci/biology/2016/4/26/beyond-the-books-event-explores-post-university-careers.html
p362
I45
sVhttp://www.concordia.ca/artsci/physics/faculty.html?fpid=valter-zazubovits
p363
I57
sVhttp://www.concordia.ca/artsci/chemistry/faculty.html?fpid=heidi-muchall
p364
I19
sVhttp://www.concordia.ca/artsci/geography-planning-environment/programs/current-students/department-forms.html
p365
I62
sVhttp://www.concordia.ca/artsci/exercise-science/faculty.html?fpid=robert-kilgour
p366
I234
sVhttp://www.concordia.ca/content/concordia/en/artsci/chemistry/news/notices/_jcr_content/content-main/list_news.feed
p367
I8
sVhttp://www.concordia.ca/artsci/psychology/student-life/associations.html
p368
I143
sVhttp://www.concordia.ca/artsci/chemistry.html
p369
I21
sVhttp://www.concordia.ca/artsci/geography-planning-environment/programs/current-students/pre-registration-guides.html
p370
I23
sVhttp://www.concordia.ca/artsci/chemistry/faculty.html?fpid=john-capobianco
p371
I17
sVhttp://www.concordia.ca/artsci/exercise-science/news.html?content-main_news_grid_list_0_start=6&rootnav=artsci%2Fexercise-science%2Fnews
p372
I5
sVhttp://www.concordia.ca/artsci/psychology/news/notices.html.html
p373
I4
sVhttp://www.concordia.ca/artsci/chemistry/faculty.html?fpid=georges-denes
p374
I4
sVhttp://www.concordia.ca/artsci/science-college/news/public-lecture-series/past-lectures/core-social-cognition.html
p375
I93
sVhttp://www.concordia.ca/artsci/geography-planning-environment/news.html.html
p376
I7
sVhttp://www.concordia.ca/artsci/chemistry/about/faculty.html
p377
I87
sVhttp://www.concordia.ca/artsci/psychology.html
p378
I10
sVhttp://www.concordia.ca/artsci/biology/cunews/artsci/biology/2015/11/18/chris-plenzich-wins-the-bayer-s-award-for-best-oral-presentation.html
p379
I62
sVhttp://www.concordia.ca/artsci/chemistry/news/notices/cunews/artsci/chemistry/2014/01/01/full-course-policy.html
p380
I30
sVhttp://www.concordia.ca/artsci/physics/faculty.html?fpid=panagiotis-vasilopoulos
p381
I110
sVhttp://www.concordia.ca/artsci/biology/programs/undergraduate/research.html
p382
I52
sVhttp://www.concordia.ca/artsci/chemistry/contact.html
p383
I32
sVhttp://www.concordia.ca/artsci/geography-planning-environment/cuevents/main/2016/10/28/robespierres-ghost-lecture-by-geoff-mann.html
p384
I98
sVhttp://www.concordia.ca/artsci/chemistry/faculty.html?fpid=jung-oh
p385
I11
sVhttp://www.concordia.ca/artsci/science-college/news/cunews/main/stories/2016/11/24/the-global-impact-of-religious-violence.html
p386
I458
sVhttp://www.concordia.ca/artsci/psychology/faculty.html?fpid=kristen-dunfield
p387
I161
sVhttp://www.concordia.ca/artsci/chemistry/about/staff.html
p388
I9
sVhttp://www.concordia.ca/artsci/science-college/program/courses.html
p389
I41
sVhttp://www.concordia.ca/artsci/exercise-science/contact.html
p390
I22
sVhttp://www.concordia.ca/artsci/math-stats/cunews/main/stories/2016/05/25/1800-avid-experiential-learners-co-op-awards.html
p391
I411
sVhttps://www.concordia.ca/artsci/science-college/about/life-at-the-college/principles.html
p392
I97
sVhttp://www.concordia.ca/artsci/geography-planning-environment/cuevents/offices/provost/library/2016/10/04/understanding-and-increasing-the-visibility-and-impact-of-your-research.html
p393
I33
sVhttp://www.concordia.ca/artsci/biology/news.html
p394
I7
sVhttp://www.concordia.ca/artsci/exercise-science/faculty.html?fpid=nikita-chicoine
p395
I5
sVhttp://www.concordia.ca/artsci/chemistry/faculty.html?fpid=rafik-naccache
p396
I50
sVhttp://www.concordia.ca/artsci/biology/faculty.html?fpid=christopher-brett
p397
I124
sVhttp://www.concordia.ca/artsci/geography-planning-environment/contact.html
p398
I5
sVhttp://www.concordia.ca/artsci/psychology/research/ethics.html
p399
I446
sVhttp://www.concordia.ca/artsci/physics/about/staff.html
p400
I8
sVhttp://www.concordia.ca/artsci/biology/faculty.html?fpid=alison-piekny
p401
I5
sVhttp://www.concordia.ca/artsci/geography-planning-environment/programs/graduate.html
p402
I194
sVhttp://www.concordia.ca/artsci/chemistry/faculty.html?fpid=gilles-peslherbe
p403
I1030
sVhttp://www.concordia.ca/artsci/psychology/faculty.html
p404
I3
sVhttp://www.concordia.ca/artsci/chemistry/programs/graduate/co-op-program.html
p405
I62
sVhttp://www.concordia.ca/artsci/chemistry/faculty.html?fpid=pat-forgione
p406
I19
sVhttp://www.concordia.ca/artsci/exercise-science/students/cunews/artsci/exercise-science/2015/06/16/amy-barrette.html
p407
I23
sVhttp://www.concordia.ca/artsci/biology/about/staff.html
p408
I7
sVhttp://www.concordia.ca/artsci/physics/research/zazubovits-research-group.html
p409
I925
sVhttp://www.concordia.ca/artsci/biology/programs/graduate/phd-biology.html
p410
I329
sVhttp://www.concordia.ca/artsci/biology/programs/undergraduate/bsc-cell-molecular-biology.html
p411
I96
sVhttp://www.concordia.ca/artsci/chemistry/news/notices/cunews/artsci/chemistry/2015/09/10/labs-tutorials.html
p412
I23
sVhttp://www.concordia.ca/artsci/biology/students/cunews/artsci/biology/2016/11/8/biology-student-shares-exchange-experience0.html
p413
I32
sVhttp://www.concordia.ca/artsci/biology/students/cunews/main/stories/2016/11/28/book-stop-holiday-sale.html
p414
I110
sVhttp://www.concordia.ca/artsci/psychology/research/clinical-health-research.html
p415
I77
sVhttp://www.concordia.ca/artsci/exercise-science/faculty.html?fpid=jacqueline-camley
p416
I3
sVhttp://www.concordia.ca/artsci/physics/faculty.html?fpid=christophe-grova
p417
I245
sVhttp://www.concordia.ca/artsci/science-college/cunews/artsci/science-college/2016/10/coffee-hour-fall-2016.html
p418
I17
sVhttp://www.concordia.ca/artsci/exercise-science/cunews/main/stories/2016/05/06/how-to-find-the-right-online-health-advice-joe-schwarcz-simon-bacon-exercise-science.html
p419
I437
sVhttp://www.concordia.ca/artsci/math-stats/student-life.html
p420
I44
sVhttp://www.concordia.ca/artsci/exercise-science/faculty.html?fpid=nancy-stonge
p421
I58
sVhttp://www.concordia.ca/artsci/geography-planning-environment/programs/undergraduate.html
p422
I121
sVhttp://www.concordia.ca/artsci/chemistry/faculty.html?fpid=sebastien-robidoux
p423
I4
sVhttp://www.concordia.ca/artsci/physics/contact.html
p424
I4
sVhttp://www.concordia.ca/artsci/psychology/faculty.html?fpid=wayne-brake
p425
I857
sVhttp://www.concordia.ca/artsci/psychology/programs.html
p426
I8
sVhttp://www.concordia.ca/artsci/exercise-science/programs/bsc-exercise-science-clinical-physiology.html
p427
I67
sVhttp://www.concordia.ca/artsci/biology/faculty.html?fpid=dylan-fraser
p428
I151
sVhttp://www.concordia.ca/artsci/math-stats/cuevents/artsci/math-stats/2016/12/04/math-circle.html
p429
I130
sVhttp://www.concordia.ca/artsci/geography-planning-environment/programs/undergraduate/human-environment-ba.html
p430
I86
sVhttp://www.concordia.ca/artsci/science-college/news/notices/cunews/artsci/science-college/2014/10/10/coffee-hour-fall-2014.html
p431
I17
sVhttp://www.concordia.ca/artsci/science-college/about/life-at-the-college/history.html
p432
I113
sVhttp://www.concordia.ca/artsci/physics/programs/undergraduate/suggested-curriculum.html
p433
I51
sVhttp://www.concordia.ca/artsci/psychology/faculty.html?fpid=roberto-dealmeida
p434
I171
sVhttp://www.concordia.ca/artsci/geography-planning-environment/student-life/groups.html
p435
I4
sVhttp://www.concordia.ca/artsci/psychology/faculty.html?fpid=karen-li
p436
I252
sVhttp://www.concordia.ca/artsci/chemistry/programs/fellowships-awards.html
p437
I119
sVhttp://www.concordia.ca/artsci/chemistry/faculty.html?fpid=paul-joyce
p438
I214
sVhttp://www.concordia.ca/artsci/chemistry/faculty.html?fpid=guillaume-lamoureux
p439
I9
sVhttp://www.concordia.ca/artsci/biology/faculty.html?fpid=jean-philippe-lessard
p440
I307
sVhttp://www.concordia.ca/artsci/physics/faculty.html?fpid=sushil-misra
p441
I672
sVhttp://www.concordia.ca/artsci/chemistry/about.html
p442
I76
sVhttp://www.concordia.ca/artsci/psychology/cunews/offices/vpaer/aar/2016/11/08/supporting-intellectual-curiosity.html
p443
I138
sVhttp://www.concordia.ca/artsci/chemistry/news/archive.html
p444
I7
sVhttp://www.concordia.ca/artsci/geography-planning-environment/cunews/main/stories/2016/11/22/incredible-potential-in-partnering-with-the-community-beyond-disciplines.html
p445
I272
sVhttp://www.concordia.ca/artsci/psychology/news/notices.html
p446
I4
sVhttp://www.concordia.ca/artsci/chemistry/research/faculty-research-areas.html
p447
I10
sVhttp://www.concordia.ca/artsci/chemistry/cunews/main/stories/2015/10/13/ada-lovelace-women-in-stem-research.html
p448
I345
sVhttp://www.concordia.ca/artsci/psychology/student-life.html
p449
I3
sVhttp://www.concordia.ca/artsci/geography-planning-environment/student-life/career-options.html
p450
I662
sVhttp://www.concordia.ca/artsci/chemistry/faculty.html?fpid=justin-powlowski
p451
I14
sVhttp://www.concordia.ca/artsci/math-stats/programs.html
p452
I70
sVhttp://www.concordia.ca/artsci/geography-planning-environment/programs/current-students/program-requirements/human-environment-requirements.html
p453
I13
sVhttps://www.concordia.ca/artsci/science-college/about/life-at-the-college/history.html
p454
I113
sVhttp://www.concordia.ca/artsci/biology/programs.html
p455
I30
sVhttp://www.concordia.ca/artsci/science-college/news/notices/cunews/artsci/science-college/2016/02/02/coffee-hour-winter-2016.html
p456
I17
sVhttp://www.concordia.ca/artsci/chemistry/profiles/raymond-le-van-mao.html
p457
I287
sVhttp://www.concordia.ca/artsci/biology/events/cuevents/offices/provost/health/2016/11/29/get-your-flu-shot-today-.html
p458
I82
sVhttp://www.concordia.ca/artsci/physics/programs/graduate/graduate-seminars.html
p459
I3365
sVhttp://www.concordia.ca/artsci/exercise-science/about/faculty.html?fpid=simon-bacon
p460
I6
sVhttp://www.concordia.ca/artsci/exercise-science/about/faculty.html?fpid=richard-demont
p461
I6
sVhttp://www.concordia.ca/artsci/biology/faculty.html?fpid=selvadurai-dayanandan
p462
I931
sVhttp://www.concordia.ca/artsci/psychology/programs/graduate/psychology-ma.html
p463
I100
sVhttp://www.concordia.ca/artsci/geography-planning-environment/programs/undergraduate/environmental-science.html
p464
I21
sVhttp://www.concordia.ca/artsci/psychology/cunews/main/stories/2016/02/04/rapid-hiv-testing-consent-awareness-and-more-at-sex-fair.html
p465
I243
sVhttp://www.concordia.ca/artsci/chemistry/research/research-centres.html
p466
I167
sVhttp://www.concordia.ca/artsci/psychology/about/jobs.html
p467
I30
sVhttp://www.concordia.ca/artsci/exercise-science/news/cunews/encs/aerospace/2016/11/21/lucas-hof-selected-as-a-winner-at-the-upcoming-smi-2016-poster-c.html
p468
I65
sVhttp://www.concordia.ca/artsci/exercise-science/cunews/artsci/exercise-science/2016/11/22/our-students.html
p469
I10
sVhttp://www.concordia.ca/artsci/science-college/faculty.html?fpid=calvin-kalman
p470
I13
sVhttp://www.concordia.ca/artsci/physics/about/faculty.html
p471
I5
sVhttp://www.concordia.ca/artsci/science-college/student-life.html
p472
I61
sVhttp://www.concordia.ca/artsci/geography-planning-environment/news/events.html
p473
I17
sVhttp://www.concordia.ca/artsci/exercise-science/about/faculty.html
p474
I6
sVhttp://www.concordia.ca/artsci/exercise-science/research/theses.html
p475
I5
sVhttp://www.concordia.ca/artsci/math-stats/about/contact.html
p476
I77
sVhttp://www.concordia.ca/artsci/psychology/faculty.html?fpid=michael-conway
p477
I133
sVhttp://www.concordia.ca/artsci/science-college/contact.html
p478
I35
sVhttp://www.concordia.ca/artsci/psychology/cunews/artsci/psychology/2016/10/25/override-dates-for-current-psychology-students.html
p479
I53
sVhttp://www.concordia.ca/artsci/biology/students/cunews/main/stories/2016/11/21/emergency-notification-testing-faculty-and-staff-2016-11-21.html
p480
I129
sVhttp://www.concordia.ca/artsci/science-college/faculty.html?fpid=grant-brown
p481
I340
sVhttp://www.concordia.ca/artsci/math-stats/about/jobs.html
p482
I85
sVhttp://www.concordia.ca/artsci/physics/research/molecular-biophysicsresearch-group.html
p483
I273
sVhttp://www.concordia.ca/artsci/psychology/faculty.html?fpid=nadia-chaudhri
p484
I941
sVhttp://www.concordia.ca/artsci/geography-planning-environment.html
p485
I13
sVhttp://www.concordia.ca/artsci/psychology/research/cognitive-science.html
p486
I83
sVhttp://www.concordia.ca/artsci/exercise-science/news/cunews/main/stories/2016/05/06/how-to-find-the-right-online-health-advice-joe-schwarcz-simon-bacon-exercise-science.html
p487
I437
sVhttp://www.concordia.ca/artsci/psychology/faculty.html?fpid=andrew-ryder
p488
I117
sVhttp://www.concordia.ca/artsci/math-stats/contact.html
p489
I76
sVhttp://www.concordia.ca/artsci/physics/programs/undergraduate/physics-bsc.html
p490
I93
sVhttp://www.concordia.ca/artsci/science-college/faculty.html?fpid=christopher-wilds
p491
I9
sVhttp://www.concordia.ca/artsci/science-college/faculty.html?fpid=vladimir-titorenko
p492
I988
sVhttp://www.concordia.ca/artsci/psychology/students/room-bookings.html
p493
I22
sVhttp://www.concordia.ca/artsci/biology/faculty.html?fpid=robert-weladji
p494
I205
sVhttp://www.concordia.ca/artsci/chemistry/programs/undergraduate/bsc-chemistry/coop.html
p495
I49
sVhttp://www.concordia.ca/artsci/science-college/cunews/artsci/science-college/2016/02/03/s-twareque-ali.html
p496
I58
sVhttp://www.concordia.ca/artsci/geography-planning-environment/news.html
p497
I7
sVhttp://www.concordia.ca/artsci/geography-planning-environment/faculty.html?fpid=jochen-a-g-jaeger
p498
I4982
sVhttp://www.concordia.ca/artsci/math-stats/programs/awards-scholarships.html
p499
I342
sVhttp://www.concordia.ca/artsci/science-college/faculty.html?fpid=david-mumby
p500
I1144
sVhttp://www.concordia.ca/artsci/exercise-science/about/faculty.html?fpid=peter-darlington
p501
I6
sVhttp://www.concordia.ca/artsci/geography-planning-environment/faculty.html?fpid=angela-kross
p502
I228
sVhttp://www.concordia.ca/artsci/biology/faculty.html?fpid=grant-brown
p503
I340
sVhttp://www.concordia.ca/artsci/chemistry/cuevents/artsci/chemistry/2016/12/02/devedec-16.html
p504
I234
sVhttp://www.concordia.ca/artsci/biology/events/cuevents/offices/provost/ssc/2016/11/15/ResumeDropIn.html
p505
I66
sVhttp://www.concordia.ca/artsci/psychology/programs/undergraduate/psychology-ba-bsc.html
p506
I59
sVhttp://www.concordia.ca/artsci/math-stats/events.html
p507
I7
sVhttp://www.concordia.ca/artsci/geography-planning-environment/faculty.html?fpid=ted-rutland
p508
I99
sVhttp://www.concordia.ca/artsci/science-college/news/cunews/artsci/science-college/2016/10/coffee-hour-fall-2016.html
p509
I17
sVhttp://www.concordia.ca/artsci/biology/research/theses.html
p510
I7
sVhttp://www.concordia.ca/artsci/chemistry/programs/undergraduate/bsc-chemistry.html
p511
I213
sVhttp://www.concordia.ca/artsci/psychology/programs/undergraduate/behavioural-neuroscience-bsc.html
p512
I78
sVhttp://www.concordia.ca/artsci/exercise-science/news/cunews/main/stories/2016/03/18/world-sleep-day-cognition-child-development-jennifer-mcgrath-thien-thanh-dang-vu.html
p513
I361
sVhttp://www.concordia.ca/artsci/psychology/research/research-centres.html
p514
I21
sVhttp://www.concordia.ca/artsci/science-college/news.html
p515
I8
sVhttp://www.concordia.ca/artsci/biology/events.html
p516
I79
sVhttp://www.concordia.ca/artsci/exercise-science/about/jobs.html
p517
I19
sVhttp://www.concordia.ca/artsci/physics/programs/graduate.html
p518
I99
sVhttp://www.concordia.ca/artsci/exercise-science/cuevents/artsci/2016/05/19/international-behavioural-trials-network-conference.html
p519
I182
sVhttp://www.concordia.ca/artsci/geography-planning-environment/faculty.html?fpid=s-robert-aiken
p520
I139
sVhttp://www.concordia.ca/artsci/science-college/faculty.html?fpid=wayne-brake
p521
I857
sVhttps://www.concordia.ca/artsci/science-college/about/life-at-the-college.html
p522
I103
sVhttp://www.concordia.ca/artsci/exercise-science/students/cunews/main/stories/2016/11/29/health-benefits-rate-for-cupfa-and-cuceptfu-2016-2017.html
p523
I130
sVhttp://www.concordia.ca/artsci/exercise-science/about/staff.html
p524
I8
sVhttp://www.concordia.ca/artsci/biology/faculty.html?fpid=adrian-tsang
p525
I481
sVhttp://www.concordia.ca/artsci/physics/programs/undergraduate/core-program.html
p526
I63
s.